(dp0
S'units'
p1
(dp2
S'hip'
p3
S'rad'
p4
sS'u_knee'
p5
S'Nm'
p6
sS'u_hip'
p7
g6
sS'baze_z'
p8
S'm'
p9
sS'baze_dz'
p10
S'm/s'
p11
sS'binary_contact'
p12
S'1'
p13
sS'time'
p14
S's'
p15
sS'knee'
p16
g4
sS'Fc_z'
p17
S'N'
p18
sS'dhip'
p19
S'rad/s'
p20
sS'dknee'
p21
g20
ssS'fields'
p22
(dp23
g3
I3
sg5
I10
sg7
I9
sg8
I1
sg10
I2
sg12
I7
sg14
I0
sg16
I5
sg17
I8
sg19
I4
sg21
I6
ssS'frequency'
p24
F100.0
sS'data'
p25
(lp26
(lp27
F0.0
aF0.01
aF0.02
aF0.03
aF0.04
aF0.05
aF0.06
aF0.07
aF0.08
aF0.09
aF0.1
aF0.11
aF0.12
aF0.13
aF0.14
aF0.15
aF0.16
aF0.17
aF0.18
aF0.19
aF0.2
aF0.21
aF0.22
aF0.23
aF0.24
aF0.25
aF0.26
aF0.27
aF0.28
aF0.29
aF0.3
aF0.31
aF0.32
aF0.33
aF0.34
aF0.35000000000000003
aF0.36
aF0.37
aF0.38
aF0.39
aF0.4
aF0.41000000000000003
aF0.42
aF0.43
aF0.44
aF0.45
aF0.46
aF0.47000000000000003
aF0.48
aF0.49
aF0.5
aF0.51
aF0.52
aF0.53
aF0.54
aF0.55
aF0.56
aF0.5700000000000001
aF0.58
aF0.59
aF0.6
aF0.61
aF0.62
aF0.63
aF0.64
aF0.65
aF0.66
aF0.67
aF0.68
aF0.6900000000000001
aF0.7000000000000001
aF0.71
aF0.72
aF0.73
aF0.74
aF0.75
aF0.76
aF0.77
aF0.78
aF0.79
aF0.8
aF0.81
aF0.8200000000000001
aF0.8300000000000001
aF0.84
aF0.85
aF0.86
aF0.87
aF0.88
aF0.89
aF0.9
aF0.91
aF0.92
aF0.93
aF0.9400000000000001
aF0.9500000000000001
aF0.96
aF0.97
aF0.98
aF0.99
aF1.0
aF1.01
aF1.02
aF1.03
aF1.04
aF1.05
aF1.06
aF1.07
aF1.08
aF1.09
aF1.1
aF1.11
aF1.12
aF1.1300000000000001
aF1.1400000000000001
aF1.1500000000000001
aF1.16
aF1.17
aF1.18
aF1.19
aF1.2
aF1.21
aF1.22
aF1.23
aF1.24
aF1.25
aF1.26
aF1.27
aF1.28
aF1.29
aF1.3
aF1.31
aF1.32
aF1.33
aF1.34
aF1.35
aF1.36
aF1.37
aF1.3800000000000001
aF1.3900000000000001
aF1.4000000000000001
aF1.41
aF1.42
aF1.43
aF1.44
aF1.45
aF1.46
aF1.47
aF1.48
aF1.49
aF1.5
aF1.51
aF1.52
aF1.53
aF1.54
aF1.55
aF1.56
aF1.57
aF1.58
aF1.59
aF1.6
aF1.61
aF1.62
aF1.6300000000000001
aF1.6400000000000001
aF1.6500000000000001
aF1.6600000000000001
aF1.67
aF1.68
aF1.69
aF1.7
aF1.71
aF1.72
aF1.73
aF1.74
aF1.75
aF1.76
aF1.77
aF1.78
aF1.79
aF1.8
aF1.81
aF1.82
aF1.83
aF1.84
aF1.85
aF1.86
aF1.87
aF1.8800000000000001
aF1.8900000000000001
aF1.9000000000000001
aF1.9100000000000001
aF1.92
aF1.93
aF1.94
aF1.95
aF1.96
aF1.97
aF1.98
aF1.99
aF2.0
aF2.0100000000000002
aF2.02
aF2.0300000000000002
aF2.04
aF2.05
aF2.06
aF2.07
aF2.08
aF2.09
aF2.1
aF2.11
aF2.12
aF2.13
aF2.14
aF2.15
aF2.16
aF2.17
aF2.18
aF2.19
aF2.2
aF2.21
aF2.22
aF2.23
aF2.24
aF2.25
aF2.2600000000000002
aF2.27
aF2.2800000000000002
aF2.29
aF2.3000000000000003
aF2.31
aF2.32
aF2.33
aF2.34
aF2.35
aF2.36
aF2.37
aF2.38
aF2.39
aF2.4
aF2.41
aF2.42
aF2.43
aF2.44
aF2.45
aF2.46
aF2.47
aF2.48
aF2.49
aF2.5
aF2.5100000000000002
aF2.52
aF2.5300000000000002
aF2.54
aF2.5500000000000003
aF2.56
aF2.57
aF2.58
aF2.59
aF2.6
aF2.61
aF2.62
aF2.63
aF2.64
aF2.65
aF2.66
aF2.67
aF2.68
aF2.69
aF2.7
aF2.71
aF2.72
aF2.73
aF2.74
aF2.75
aF2.7600000000000002
aF2.77
aF2.7800000000000002
aF2.79
aF2.8000000000000003
aF2.81
aF2.82
aF2.83
aF2.84
aF2.85
aF2.86
aF2.87
aF2.88
aF2.89
aF2.9
aF2.91
aF2.92
aF2.93
aF2.94
aF2.95
aF2.96
aF2.97
aF2.98
aF2.99
aF3.0
aF3.0100000000000002
aF3.02
aF3.0300000000000002
aF3.04
aF3.0500000000000003
aF3.06
aF3.0700000000000003
aF3.08
aF3.09
aF3.1
aF3.11
aF3.12
aF3.13
aF3.14
aF3.15
aF3.16
aF3.17
aF3.18
aF3.19
aF3.2
aF3.21
aF3.22
aF3.23
aF3.24
aF3.25
aF3.2600000000000002
aF3.27
aF3.2800000000000002
aF3.29
aF3.3000000000000003
aF3.31
aF3.3200000000000003
aF3.33
aF3.34
aF3.35
aF3.36
aF3.37
aF3.38
aF3.39
aF3.4
aF3.41
aF3.42
aF3.43
aF3.44
aF3.45
aF3.46
aF3.47
aF3.48
aF3.49
aF3.5
aF3.5100000000000002
aF3.52
aF3.5300000000000002
aF3.54
aF3.5500000000000003
aF3.56
aF3.5700000000000003
aF3.58
aF3.59
aF3.6
aF3.61
aF3.62
aF3.63
aF3.64
aF3.65
aF3.66
aF3.67
aF3.68
aF3.69
aF3.7
aF3.71
aF3.72
aF3.73
aF3.74
aF3.75
aF3.7600000000000002
aF3.77
aF3.7800000000000002
aF3.79
aF3.8000000000000003
aF3.81
aF3.8200000000000003
aF3.83
aF3.84
aF3.85
aF3.86
aF3.87
aF3.88
aF3.89
aF3.9
aF3.91
aF3.92
aF3.93
aF3.94
aF3.95
aF3.96
aF3.97
aF3.98
aF3.99
aa(lp28
F0.11041394621133804
aF0.11037909984588623
aF0.11116627603769302
aF0.11242090910673141
aF0.11501877009868622
aF0.11831590533256531
aF0.12180382013320923
aF0.12667378783226013
aF0.13203465938568115
aF0.13769440352916718
aF0.14423787593841553
aF0.15098491311073303
aF0.1583397090435028
aF0.16533128917217255
aF0.1727260798215866
aF0.17961080372333527
aF0.18549102544784546
aF0.18967783451080322
aF0.19312205910682678
aF0.1955496221780777
aF0.19700434803962708
aF0.19757017493247986
aF0.1969798505306244
aF0.19635483622550964
aF0.19536460936069489
aF0.19462446868419647
aF0.19348661601543427
aF0.1920751929283142
aF0.19011430442333221
aF0.1868823766708374
aF0.18270209431648254
aF0.17764411866664886
aF0.1725805550813675
aF0.16657164692878723
aF0.16037383675575256
aF0.15290285646915436
aF0.14507895708084106
aF0.13618683815002441
aF0.12799879908561707
aF0.12000840157270432
aF0.11367857456207275
aF0.10808050632476807
aF0.10417287796735764
aF0.10093827545642853
aF0.0996546670794487
aF0.09980569034814835
aF0.10077209770679474
aF0.10296803712844849
aF0.10658682137727737
aF0.11007673293352127
aF0.11461862176656723
aF0.12019844353199005
aF0.12607139348983765
aF0.132253959774971
aF0.1393183022737503
aF0.14676101505756378
aF0.1538178026676178
aF0.16166456043720245
aF0.16946838796138763
aF0.17670920491218567
aF0.18334098160266876
aF0.18923978507518768
aF0.19398820400238037
aF0.1974247246980667
aF0.19955876469612122
aF0.20050305128097534
aF0.2015005648136139
aF0.20123687386512756
aF0.20029504597187042
aF0.19828587770462036
aF0.19615118205547333
aF0.19371303915977478
aF0.1910542994737625
aF0.18871937692165375
aF0.18571242690086365
aF0.18207183480262756
aF0.17725612223148346
aF0.1721908152103424
aF0.16600383818149567
aF0.15908923745155334
aF0.15137644112110138
aF0.14440910518169403
aF0.13974492251873016
aF0.139455184340477
aF0.1429198682308197
aF0.14902694523334503
aF0.15761342644691467
aF0.16689977049827576
aF0.17537978291511536
aF0.18309932947158813
aF0.18973380327224731
aF0.19605447351932526
aF0.20064958930015564
aF0.20487278699874878
aF0.20960642397403717
aF0.21386276185512543
aF0.2185577154159546
aF0.22356180846691132
aF0.2282210886478424
aF0.23296232521533966
aF0.23821227252483368
aF0.24280352890491486
aF0.2469109445810318
aF0.25083598494529724
aF0.2544296979904175
aF0.2575976550579071
aF0.2605314254760742
aF0.263519287109375
aF0.2662159204483032
aF0.2686236500740051
aF0.27087128162384033
aF0.2728513479232788
aF0.2747800648212433
aF0.2767610549926758
aF0.2781992554664612
aF0.27951332926750183
aF0.28070250153541565
aF0.2822624146938324
aF0.2833065688610077
aF0.28395217657089233
aF0.2845746576786041
aF0.2848207950592041
aF0.28440719842910767
aF0.2843576669692993
aF0.2835385203361511
aF0.2831226587295532
aF0.2828528881072998
aF0.28248709440231323
aF0.28145554661750793
aF0.28114140033721924
aF0.28019484877586365
aF0.2795752286911011
aF0.2790941298007965
aF0.27859148383140564
aF0.2778095304965973
aF0.2770908772945404
aF0.27675172686576843
aF0.27564290165901184
aF0.27481740713119507
aF0.27407440543174744
aF0.273206502199173
aF0.2723316550254822
aF0.2712194621562958
aF0.27010706067085266
aF0.26948878169059753
aF0.26894575357437134
aF0.2682507336139679
aF0.26730209589004517
aF0.26663193106651306
aF0.26597797870635986
aF0.2652752995491028
aF0.2642141580581665
aF0.2634107768535614
aF0.2626027464866638
aF0.26171866059303284
aF0.26069822907447815
aF0.25990030169487
aF0.25897714495658875
aF0.257544606924057
aF0.25681957602500916
aF0.25596413016319275
aF0.2549959719181061
aF0.2531505525112152
aF0.2515007257461548
aF0.2500423491001129
aF0.24834804236888885
aF0.2462882250547409
aF0.244159534573555
aF0.2415476143360138
aF0.23902596533298492
aF0.2365497648715973
aF0.23397448658943176
aF0.23081769049167633
aF0.22822588682174683
aF0.22534921765327454
aF0.22298720479011536
aF0.22061745822429657
aF0.21860942244529724
aF0.21635913848876953
aF0.21434861421585083
aF0.2122793197631836
aF0.210504949092865
aF0.20863895118236542
aF0.2063322812318802
aF0.2050316482782364
aF0.20363502204418182
aF0.20255480706691742
aF0.20122341811656952
aF0.20001257956027985
aF0.19870977103710175
aF0.1980564147233963
aF0.1975427269935608
aF0.19718731939792633
aF0.19640767574310303
aF0.19504597783088684
aF0.19403953850269318
aF0.19268891215324402
aF0.19091780483722687
aF0.18951845169067383
aF0.18784616887569427
aF0.18615436553955078
aF0.18430860340595245
aF0.18289843201637268
aF0.18067125976085663
aF0.17850404977798462
aF0.17637446522712708
aF0.17441435158252716
aF0.1726340502500534
aF0.1703019142150879
aF0.16844651103019714
aF0.1663087159395218
aF0.163994699716568
aF0.16168220341205597
aF0.15970748662948608
aF0.15761643648147583
aF0.15713874995708466
aF0.15674687922000885
aF0.15698634088039398
aF0.15692700445652008
aF0.15693607926368713
aF0.1566087156534195
aF0.15647082030773163
aF0.15667468309402466
aF0.1566903442144394
aF0.15665984153747559
aF0.15605223178863525
aF0.1556355059146881
aF0.15531709790229797
aF0.15348577499389648
aF0.15192686021327972
aF0.14990293979644775
aF0.14702656865119934
aF0.14309562742710114
aF0.13890738785266876
aF0.134382426738739
aF0.13025520741939545
aF0.12801989912986755
aF0.12664994597434998
aF0.12645840644836426
aF0.12748010456562042
aF0.1298416405916214
aF0.1333136111497879
aF0.1373777985572815
aF0.14225758612155914
aF0.14774496853351593
aF0.15394315123558044
aF0.1603008657693863
aF0.16741980612277985
aF0.17418542504310608
aF0.18031039834022522
aF0.1858450472354889
aF0.19077205657958984
aF0.19465962052345276
aF0.19680143892765045
aF0.1987498551607132
aF0.1995236575603485
aF0.1991661936044693
aF0.19839692115783691
aF0.19662244617938995
aF0.19413329660892487
aF0.19213584065437317
aF0.18943706154823303
aF0.18641456961631775
aF0.18296243250370026
aF0.1792861819267273
aF0.17484794557094574
aF0.1691979020833969
aF0.16346172988414764
aF0.1569887101650238
aF0.14931388199329376
aF0.1412597894668579
aF0.13258185982704163
aF0.1233416348695755
aF0.11542370915412903
aF0.10808032751083374
aF0.10162284970283508
aF0.09684193879365921
aF0.09366699308156967
aF0.09119459986686707
aF0.09002377837896347
aF0.09082730114459991
aF0.09202536940574646
aF0.09447189420461655
aF0.09755431860685349
aF0.10163179785013199
aF0.10619417577981949
aF0.11159193515777588
aF0.11720806360244751
aF0.12351462990045547
aF0.12995930016040802
aF0.13690084218978882
aF0.1446082442998886
aF0.15194393694400787
aF0.15978868305683136
aF0.16758853197097778
aF0.17468824982643127
aF0.1813952773809433
aF0.1879221498966217
aF0.19287419319152832
aF0.19741803407669067
aF0.20038510859012604
aF0.20240768790245056
aF0.20305657386779785
aF0.20321328938007355
aF0.2026011198759079
aF0.2013721466064453
aF0.19932720065116882
aF0.1971491277217865
aF0.1949707716703415
aF0.19229328632354736
aF0.19036434590816498
aF0.18653038144111633
aF0.18213124573230743
aF0.1768750250339508
aF0.17123135924339294
aF0.16543689370155334
aF0.1587003916501999
aF0.15154927968978882
aF0.14512211084365845
aF0.13928815722465515
aF0.13527162373065948
aF0.13201339542865753
aF0.12939554452896118
aF0.12807175517082214
aF0.1284976750612259
aF0.12982505559921265
aF0.13173523545265198
aF0.13487811386585236
aF0.13897524774074554
aF0.14390714466571808
aF0.1490510255098343
aF0.15503127872943878
aF0.1614052951335907
aF0.16824820637702942
aF0.1747017800807953
aF0.180667906999588
aF0.18588833510875702
aF0.19068282842636108
aF0.19380639493465424
aF0.19602981209754944
aF0.19695213437080383
aF0.19698432087898254
aF0.19694212079048157
aF0.19495931267738342
aF0.1930263340473175
aF0.1906002014875412
aF0.18826919794082642
aF0.1849977970123291
aF0.18248634040355682
aF0.1790311336517334
aF0.1753498911857605
aF0.1699552685022354
aF0.1643248051404953
aF0.1580357700586319
aF0.15169580280780792
aF0.14388978481292725
aF0.1350303441286087
aF0.12702292203903198
aF0.12084140628576279
aF0.11553215235471725
aF0.1124805361032486
aF0.1105118915438652
aF0.11021498590707779
aF0.11146362870931625
aF0.11335603147745132
aF0.11626226454973221
aF0.11955127120018005
aF0.12398507446050644
aF0.12917178869247437
aF0.13522586226463318
aF0.14146848022937775
aF0.14795824885368347
aF0.15499238669872284
aF0.16218602657318115
aF0.16938307881355286
aF0.1762789934873581
aF0.18280230462551117
aF0.18857061862945557
aF0.1935010850429535
aF0.19802016019821167
aF0.2010713517665863
aF0.20315177738666534
aF0.20391415059566498
aF0.20391492545604706
aF0.20307870209217072
aF0.20144757628440857
aF0.1987820416688919
aF0.19554820656776428
aF0.19195556640625
aF0.18864133954048157
aF0.1852937936782837
aF0.18190012872219086
aF0.1778945028781891
aF0.17303185164928436
aF0.16747595369815826
aF0.1611400544643402
aF0.1544262170791626
aF0.14876867830753326
aF0.14449353516101837
aF0.14275126159191132
aa(lp29
F0.0
aF0.0
aF0.0
aF0.0
aF0.0
aF0.0
aF0.0
aF0.0
aF0.0
aF0.0
aF0.0
aF0.0
aF0.0
aF0.0
aF0.0
aF0.0
aF0.0
aF0.0
aF0.0
aF0.0
aF0.0
aF0.0
aF0.0
aF0.0
aF0.0
aF0.0
aF0.0
aF0.0
aF0.0
aF0.0
aF0.0
aF0.0
aF0.0
aF0.0
aF0.0
aF0.0
aF0.0
aF0.0
aF0.0
aF0.0
aF0.0
aF0.0
aF0.0
aF0.0
aF0.0
aF0.0
aF0.0
aF0.0
aF0.0
aF0.0
aF0.0
aF0.0
aF0.0
aF0.0
aF0.0
aF0.0
aF0.0
aF0.0
aF0.0
aF0.0
aF0.0
aF0.0
aF0.0
aF0.0
aF0.0
aF0.0
aF0.0
aF0.0
aF0.0
aF0.0
aF0.0
aF0.0
aF0.0
aF0.0
aF0.0
aF0.0
aF0.0
aF0.0
aF0.0
aF0.0
aF0.0
aF0.0
aF0.0
aF0.0
aF0.0
aF0.0
aF0.0
aF0.0
aF0.0
aF0.0
aF0.0
aF0.0
aF0.0
aF0.0
aF0.0
aF0.0
aF0.0
aF0.0
aF0.0
aF0.0
aF0.0
aF0.0
aF0.0
aF0.0
aF0.0
aF0.0
aF0.0
aF0.0
aF0.0
aF0.0
aF0.0
aF0.0
aF0.0
aF0.0
aF0.0
aF0.0
aF0.0
aF0.0
aF0.0
aF0.0
aF0.0
aF0.0
aF0.0
aF0.0
aF0.0
aF0.0
aF0.0
aF0.0
aF0.0
aF0.0
aF0.0
aF0.0
aF0.0
aF0.0
aF0.0
aF0.0
aF0.0
aF0.0
aF0.0
aF0.0
aF0.0
aF0.0
aF0.0
aF0.0
aF0.0
aF0.0
aF0.0
aF0.0
aF0.0
aF0.0
aF0.0
aF0.0
aF0.0
aF0.0
aF0.0
aF0.0
aF0.0
aF0.0
aF0.0
aF0.0
aF0.0
aF0.0
aF0.0
aF0.0
aF0.0
aF0.0
aF0.0
aF0.0
aF0.0
aF0.0
aF0.0
aF0.0
aF0.0
aF0.0
aF0.0
aF0.0
aF0.0
aF0.0
aF0.0
aF0.0
aF0.0
aF0.0
aF0.0
aF0.0
aF0.0
aF0.0
aF0.0
aF0.0
aF0.0
aF0.0
aF0.0
aF0.0
aF0.0
aF0.0
aF0.0
aF0.0
aF0.0
aF0.0
aF0.0
aF0.0
aF0.0
aF0.0
aF0.0
aF0.0
aF0.0
aF0.0
aF0.0
aF0.0
aF0.0
aF0.0
aF0.0
aF0.0
aF0.0
aF0.0
aF0.0
aF0.0
aF0.0
aF0.0
aF0.0
aF0.0
aF0.0
aF0.0
aF0.0
aF0.0
aF0.0
aF0.0
aF0.0
aF0.0
aF0.0
aF0.0
aF0.0
aF0.0
aF0.0
aF0.0
aF0.0
aF0.0
aF0.0
aF0.0
aF0.0
aF0.0
aF0.0
aF0.0
aF0.0
aF0.0
aF0.0
aF0.0
aF0.0
aF0.0
aF0.0
aF0.0
aF0.0
aF0.0
aF0.0
aF0.0
aF0.0
aF0.0
aF0.0
aF0.0
aF0.0
aF0.0
aF0.0
aF0.0
aF0.0
aF0.0
aF0.0
aF0.0
aF0.0
aF0.0
aF0.0
aF0.0
aF0.0
aF0.0
aF0.0
aF0.0
aF0.0
aF0.0
aF0.0
aF0.0
aF0.0
aF0.0
aF0.0
aF0.0
aF0.0
aF0.0
aF0.0
aF0.0
aF0.0
aF0.0
aF0.0
aF0.0
aF0.0
aF0.0
aF0.0
aF0.0
aF0.0
aF0.0
aF0.0
aF0.0
aF0.0
aF0.0
aF0.0
aF0.0
aF0.0
aF0.0
aF0.0
aF0.0
aF0.0
aF0.0
aF0.0
aF0.0
aF0.0
aF0.0
aF0.0
aF0.0
aF0.0
aF0.0
aF0.0
aF0.0
aF0.0
aF0.0
aF0.0
aF0.0
aF0.0
aF0.0
aF0.0
aF0.0
aF0.0
aF0.0
aF0.0
aF0.0
aF0.0
aF0.0
aF0.0
aF0.0
aF0.0
aF0.0
aF0.0
aF0.0
aF0.0
aF0.0
aF0.0
aF0.0
aF0.0
aF0.0
aF0.0
aF0.0
aF0.0
aF0.0
aF0.0
aF0.0
aF0.0
aF0.0
aF0.0
aF0.0
aF0.0
aF0.0
aF0.0
aF0.0
aF0.0
aF0.0
aF0.0
aF0.0
aF0.0
aF0.0
aF0.0
aF0.0
aF0.0
aF0.0
aF0.0
aF0.0
aF0.0
aF0.0
aF0.0
aF0.0
aF0.0
aF0.0
aF0.0
aF0.0
aF0.0
aF0.0
aF0.0
aF0.0
aF0.0
aF0.0
aF0.0
aF0.0
aF0.0
aF0.0
aF0.0
aF0.0
aF0.0
aF0.0
aF0.0
aF0.0
aF0.0
aF0.0
aF0.0
aF0.0
aF0.0
aF0.0
aa(lp30
F1.1911277770996094
aF1.1808388233184814
aF1.1509771347045898
aF1.1440318822860718
aF1.1242620944976807
aF1.1033800840377808
aF1.072176456451416
aF1.0361994504928589
aF0.9904219508171082
aF0.9493357539176941
aF0.8996807336807251
aF0.8510991334915161
aF0.7979148626327515
aF0.7436304688453674
aF0.6920976638793945
aF0.6271301507949829
aF0.612981915473938
aF0.6495620012283325
aF0.7148950695991516
aF0.7655267119407654
aF0.9082643389701843
aF1.0249834060668945
aF1.140242099761963
aF1.2233562469482422
aF1.2546067237854004
aF1.2410389184951782
aF1.2066802978515625
aF1.1642640829086304
aF1.1188298463821411
aF1.0797643661499023
aF1.0114247798919678
aF1.0271284580230713
aF1.0007874965667725
aF0.9719148278236389
aF0.9389676451683044
aF0.9192878007888794
aF0.9710667133331299
aF1.0349595546722412
aF1.0763130187988281
aF1.0690211057662964
aF1.1482118368148804
aF1.1748435497283936
aF1.2113617658615112
aF1.2310242652893066
aF1.2432308197021484
aF1.243480920791626
aF1.2381435632705688
aF1.2191834449768066
aF1.1996917724609375
aF1.1698970794677734
aF1.1369484663009644
aF1.0988304615020752
aF1.0503753423690796
aF0.9982669949531555
aF0.9488478899002075
aF0.8949459791183472
aF0.8417574167251587
aF0.7826122641563416
aF0.7291817665100098
aF0.6806895732879639
aF0.6202006340026855
aF0.5296605229377747
aF0.5373740196228027
aF0.5448720455169678
aF0.6557915210723877
aF0.7249045372009277
aF0.8285197615623474
aF0.9256118535995483
aF1.045751929283142
aF1.1391282081604004
aF1.210169792175293
aF1.266623854637146
aF1.2444642782211304
aF1.206896185874939
aF1.1538195610046387
aF1.1003940105438232
aF1.0532279014587402
aF1.020958662033081
aF0.9758223295211792
aF1.002441644668579
aF0.984488308429718
aF0.9790400266647339
aF0.9713602066040039
aF0.9258682131767273
aF0.9003337621688843
aF0.8436249494552612
aF0.7933143973350525
aF0.7278961539268494
aF0.6821212768554688
aF0.5710655450820923
aF0.5556590557098389
aF0.46691063046455383
aF0.5289124846458435
aF0.5473394393920898
aF0.619085967540741
aF0.6942504048347473
aF0.8095976114273071
aF0.9160665273666382
aF0.9869064092636108
aF1.0914695262908936
aF1.1340794563293457
aF1.155773639678955
aF1.2055468559265137
aF1.1863681077957153
aF1.2153661251068115
aF1.1714078187942505
aF1.1922982931137085
aF1.151338815689087
aF1.1647675037384033
aF1.121941328048706
aF1.1530559062957764
aF1.1292287111282349
aF1.1405600309371948
aF1.1549924612045288
aF1.1471079587936401
aF1.20151686668396
aF1.1950827836990356
aF1.1995643377304077
aF1.1732951402664185
aF1.1305994987487793
aF1.161115050315857
aF1.1472845077514648
aF1.1158795356750488
aF1.1469117403030396
aF1.1318055391311646
aF1.1702303886413574
aF1.1533750295639038
aF1.1693215370178223
aF1.1510926485061646
aF1.151857614517212
aF1.1665328741073608
aF1.1376333236694336
aF1.1654537916183472
aF1.1343820095062256
aF1.175689935684204
aF1.1493678092956543
aF1.159468412399292
aF1.1690853834152222
aF1.1550462245941162
aF1.1902014017105103
aF1.1719781160354614
aF1.1688650846481323
aF1.1999037265777588
aF1.1796801090240479
aF1.2057050466537476
aF1.1587026119232178
aF1.1813137531280518
aF1.1402124166488647
aF1.1588832139968872
aF1.1105917692184448
aF1.1421560049057007
aF1.1115751266479492
aF1.136584997177124
aF1.0999345779418945
aF1.143677830696106
aF1.1313755512237549
aF1.1370893716812134
aF1.1622300148010254
aF1.1467020511627197
aF1.1830222606658936
aF1.1552435159683228
aF1.1682863235473633
aF1.1416428089141846
aF1.1705456972122192
aF1.1328445672988892
aF1.1455388069152832
aF1.1012464761734009
aF1.0749635696411133
aF1.1087950468063354
aF1.0718275308609009
aF1.071020483970642
aF1.0983126163482666
aF1.083867073059082
aF1.1287391185760498
aF1.1101689338684082
aF1.1212122440338135
aF1.0856488943099976
aF1.0984342098236084
aF1.0575060844421387
aF1.0625278949737549
aF1.0090105533599854
aF1.0505270957946777
aF1.0320299863815308
aF1.039616346359253
aF1.0259029865264893
aF1.001405954360962
aF1.0273854732513428
aF1.0114448070526123
aF1.0318461656570435
aF1.0216463804244995
aF1.0547397136688232
aF1.011275291442871
aF1.0333632230758667
aF0.9915433526039124
aF1.028019905090332
aF0.9987258911132812
aF1.027537226676941
aF1.0311559438705444
aF1.0137908458709717
aF1.0696152448654175
aF1.0629820823669434
aF1.0680893659591675
aF1.0718135833740234
aF1.0584132671356201
aF1.1078667640686035
aF1.0832501649856567
aF1.1004984378814697
aF1.0483486652374268
aF1.018763780593872
aF0.9812326431274414
aF0.9604272246360779
aF0.909005343914032
aF0.8564273715019226
aF0.8349151015281677
aF0.8439950346946716
aF0.8080481886863708
aF0.9085873961448669
aF0.9503667950630188
aF0.9613916873931885
aF1.024200439453125
aF1.023084282875061
aF1.0564897060394287
aF1.0204745531082153
aF1.0034279823303223
aF1.017382264137268
aF0.9730445742607117
aF0.9893509745597839
aF0.9688666462898254
aF0.9758521318435669
aF0.9596344232559204
aF0.9836358428001404
aF0.9638746976852417
aF1.0308177471160889
aF1.0194731950759888
aF1.0573755502700806
aF1.0185288190841675
aF1.0491949319839478
aF1.0509710311889648
aF1.0558494329452515
aF1.0461416244506836
aF1.0324170589447021
aF1.0017071962356567
aF0.9733021855354309
aF0.9325944781303406
aF0.8861432671546936
aF0.8402442932128906
aF0.7915325164794922
aF0.7367777228355408
aF0.687106192111969
aF0.6456229090690613
aF0.5537654161453247
aF0.5571831464767456
aF0.5491887927055359
aF0.6268650889396667
aF0.7154405117034912
aF0.7834193706512451
aF0.8707565069198608
aF1.0015969276428223
aF1.0831114053726196
aF1.1649162769317627
aF1.2288538217544556
aF1.2297790050506592
aF1.2174038887023926
aF1.1956623792648315
aF1.1596224308013916
aF1.105566382408142
aF1.03709876537323
aF1.0502678155899048
aF1.0101633071899414
aF0.9835795760154724
aF0.9967977404594421
aF0.9919484853744507
aF1.0495617389678955
aF1.050284504890442
aF1.105872392654419
aF1.151231288909912
aF1.1830028295516968
aF1.216563105583191
aF1.2301499843597412
aF1.2291240692138672
aF1.230955958366394
aF1.2243074178695679
aF1.2090381383895874
aF1.1878199577331543
aF1.160473108291626
aF1.131245493888855
aF1.0958701372146606
aF1.0534414052963257
aF1.0042316913604736
aF0.9604730010032654
aF0.9099428653717041
aF0.8561484217643738
aF0.8076569437980652
aF0.7532599568367004
aF0.7146691083908081
aF0.628422737121582
aF0.5831564664840698
aF0.5529210567474365
aF0.4841105043888092
aF0.51924729347229
aF0.5838518738746643
aF0.7039430737495422
aF0.770256519317627
aF0.8910635709762573
aF1.0202722549438477
aF1.1036157608032227
aF1.203226089477539
aF1.2491692304611206
aF1.2472738027572632
aF1.2062771320343018
aF1.169411301612854
aF1.1297118663787842
aF1.1058976650238037
aF1.017511248588562
aF0.9958856105804443
aF0.9274450540542603
aF0.8429673314094543
aF0.893501341342926
aF0.8268231749534607
aF0.8790130019187927
aF0.9051896333694458
aF0.9393171072006226
aF0.9351534247398376
aF0.9623081684112549
aF0.9504730701446533
aF0.945767343044281
aF0.9270262122154236
aF0.9095874428749084
aF0.87458336353302
aF0.8441822528839111
aF0.8044801354408264
aF0.7658491134643555
aF0.7246474623680115
aF0.6776670217514038
aF0.6357009410858154
aF0.5688289999961853
aF0.5549816489219666
aF0.4878886342048645
aF0.5272541046142578
aF0.6009564995765686
aF0.6725098490715027
aF0.7690631151199341
aF0.9141795039176941
aF1.0126149654388428
aF1.1303520202636719
aF1.211473822593689
aF1.2323001623153687
aF1.2354832887649536
aF1.2159993648529053
aF1.1809934377670288
aF1.1174942255020142
aF1.0516932010650635
aF1.0538480281829834
aF1.0019642114639282
aF0.9711655378341675
aF0.9888734817504883
aF0.9704705476760864
aF1.0103610754013062
aF1.0108870267868042
aF1.0496348142623901
aF1.073715090751648
aF1.0845223665237427
aF1.085286021232605
aF1.0802053213119507
aF1.0627013444900513
aF1.0469082593917847
aF1.0217112302780151
aF0.9905129671096802
aF0.9550715684890747
aF0.9147806167602539
aF0.8681535124778748
aF0.8227341175079346
aF0.7737007737159729
aF0.7286151051521301
aF0.6724708080291748
aF0.6411083936691284
aF0.5838117003440857
aF0.49771833419799805
aF0.47159361839294434
aF0.4006640613079071
aF0.41693195700645447
aF0.4642004668712616
aF0.6073054075241089
aF0.6849372386932373
aF0.801683783531189
aF0.9366992115974426
aF1.101588249206543
aF1.210159182548523
aF1.286691665649414
aF1.3217476606369019
aF1.299470067024231
aF1.2412084341049194
aF1.1874113082885742
aF1.129539132118225
aF1.0944366455078125
aF1.0003745555877686
aF0.9714516401290894
aF0.9119195342063904
aF0.9624984860420227
aF0.9227340221405029
aa(lp31
F-4.161191827734001e-05
aF-3.887547492980957
aF-1.9280097484588623
aF-1.160088300704956
aF-2.07336163520813
aF-2.4750092029571533
aF-2.7768001556396484
aF-4.287221431732178
aF-3.69816517829895
aF-4.984040260314941
aF-3.4713642597198486
aF-5.720204830169678
aF-3.2489817142486572
aF-8.279136657714844
aF-1.979235053062439
aF-9.022645950317383
aF2.0349948406219482
aF5.749294281005859
aF8.0208740234375
aF5.576778888702393
aF9.323161125183105
aF14.749507904052734
aF7.353129863739014
aF6.248769760131836
aF-0.01874130219221115
aF-2.7817583084106445
aF-4.291430950164795
aF0.30358633399009705
aF-12.139849662780762
aF0.7795213460922241
aF-5.338711738586426
aF-0.4304168224334717
aF-1.166169285774231
aF-6.276029586791992
aF2.209963798522949
aF-6.045214653015137
aF15.657873153686523
aF0.020071370527148247
aF-3.082900285720825
aF4.948507308959961
aF5.8609771728515625
aF2.2006568908691406
aF3.6135175228118896
aF1.3110095262527466
aF0.8940714001655579
aF-0.4353669285774231
aF-1.077231764793396
aF-1.9754157066345215
aF-2.111268997192383
aF-3.2358760833740234
aF-3.0566246509552
aF-4.288291931152344
aF-5.346220016479492
aF-4.871749401092529
aF-5.160781383514404
aF-4.347822666168213
aF-5.009548664093018
aF-6.242922782897949
aF-3.300480842590332
aF-8.904247283935547
aF-3.871361494064331
aF-5.671209812164307
aF3.045957088470459
aF0.568183422088623
aF13.515960693359375
aF6.51954460144043
aF6.0010294914245605
aF14.914703369140625
aF6.160851001739502
aF12.78550910949707
aF0.5235819220542908
aF3.6115269660949707
aF-1.9489742517471313
aF-4.335459232330322
aF-6.537032604217529
aF-0.9161590337753296
aF-9.933576583862305
aF4.254720687866211
aF-6.300382614135742
aF0.6813821196556091
aF4.777279376983643
aF-8.700244903564453
aF-1.3016639947891235
aF-2.887561559677124
aF-2.2518179416656494
aF-7.850654125213623
aF-1.7806271314620972
aF-9.32841682434082
aF-3.857438325881958
aF-8.436920166015625
aF-10.065431594848633
aF4.324559688568115
aF10.04120922088623
aF-3.273122549057007
aF8.224068641662598
aF13.230484008789062
aF4.505026817321777
aF12.009835243225098
aF9.045854568481445
aF5.44239616394043
aF7.265968322753906
aF-2.835157871246338
aF7.276360511779785
aF-3.6847152709960938
aF1.8089982271194458
aF-4.837402820587158
aF2.742100477218628
aF-5.118524074554443
aF2.1647207736968994
aF-4.060304164886475
aF1.5422154664993286
aF2.59704327583313
aF-6.877208232879639
aF8.788192749023438
aF-0.5952209830284119
aF2.09511661529541
aF2.812305450439453
aF-7.870257377624512
aF3.9805595874786377
aF-3.1499359607696533
aF-1.789141297340393
aF3.6596622467041016
aF-5.432377815246582
aF3.8729143142700195
aF0.5973625779151917
aF0.6949540376663208
aF0.16548669338226318
aF-1.5161763429641724
aF4.62438440322876
aF-7.748330593109131
aF5.5657806396484375
aF-3.5522212982177734
aF2.5536770820617676
aF-2.7632627487182617
aF2.9793477058410645
aF0.6850911378860474
aF-7.169355869293213
aF9.752111434936523
aF-2.0356619358062744
aF-0.09546403586864471
aF3.5994746685028076
aF-5.994863033294678
aF8.228349685668945
aF-3.4409918785095215
aF0.9536474347114563
aF-4.813982963562012
aF4.902586460113525
aF-5.371703624725342
aF-0.21505320072174072
aF-2.2655136585235596
aF1.868378758430481
aF-2.680668354034424
aF1.7991520166397095
aF-1.6134058237075806
aF1.145564317703247
aF3.8974056243896484
aF-6.731623649597168
aF9.071927070617676
aF-2.026848316192627
aF1.9871625900268555
aF-3.4182918071746826
aF3.4390783309936523
aF-4.5936431884765625
aF3.8078174591064453
aF-2.5272178649902344
aF-4.92166805267334
aF4.767965793609619
aF-7.109108924865723
aF2.1033787727355957
aF1.8231956958770752
aF-7.710104465484619
aF8.544119834899902
aF-0.1300029158592224
aF1.0947554111480713
aF-1.0734437704086304
aF1.0520163774490356
aF-4.651983737945557
aF4.205345630645752
aF-8.203289985656738
aF3.227602243423462
aF-3.4175143241882324
aF1.1584562063217163
aF2.259751081466675
aF-3.7303342819213867
aF1.9107074737548828
aF-5.421238899230957
aF8.041353225708008
aF-6.982818126678467
aF8.324226379394531
aF-3.4346792697906494
aF2.9285268783569336
aF-3.331888437271118
aF-0.3816373944282532
aF-2.1383748054504395
aF2.8117892742156982
aF0.9841052889823914
aF-6.425043106079102
aF8.1393404006958
aF-1.484816551208496
aF1.7166497707366943
aF3.4681904315948486
aF-8.027846336364746
aF8.986248970031738
aF-4.187593936920166
aF3.685891628265381
aF-1.151127815246582
aF-2.845628261566162
aF-3.4599242210388184
aF-3.9156086444854736
aF-1.8136265277862549
aF-5.020626068115234
aF-3.443852424621582
aF-5.401090621948242
aF2.3338983058929443
aF-10.169158935546875
aF11.58242416381836
aF2.1532235145568848
aF9.468490600585938
aF-3.2199902534484863
aF6.641261577606201
aF1.0104435682296753
aF-1.0887645483016968
aF3.651331663131714
aF-9.36589241027832
aF5.185617446899414
aF-4.9858598709106445
aF1.162907600402832
aF-2.8562822341918945
aF4.95238733291626
aF-6.334650039672852
aF6.7265191078186035
aF-1.2604621648788452
aF3.8763043880462646
aF1.1804393529891968
aF-4.6782426834106445
aF0.5193465948104858
aF1.5989891290664673
aF0.6226997971534729
aF-0.7076808214187622
aF-0.22340801358222961
aF-3.439642906188965
aF-2.200565814971924
aF-4.00276517868042
aF-3.1607096195220947
aF-5.339587688446045
aF-2.23368763923645
aF-8.035782814025879
aF-2.7912652492523193
aF-6.78745698928833
aF-6.295287132263184
aF1.3771706819534302
aF-10.649553298950195
aF10.57285213470459
aF6.411620140075684
aF4.698726177215576
aF16.897184371948242
aF6.578501224517822
aF9.415743827819824
aF11.247291564941406
aF3.077826738357544
aF4.539470195770264
aF-0.7127656936645508
aF-1.6467204093933105
aF-0.29421836137771606
aF-12.018775939941406
aF2.9265968799591064
aF-7.352212429046631
aF-2.500598192214966
aF2.17409086227417
aF-7.351276874542236
aF6.629805564880371
aF-0.752402663230896
aF0.035622891038656235
aF0.6676437258720398
aF7.192894458770752
aF2.330634593963623
aF4.179959774017334
aF2.34139347076416
aF0.5569741725921631
aF-0.3093613088130951
aF0.2392134964466095
aF-1.352790117263794
aF-1.724678874015808
aF-2.5246963500976562
aF-2.740417718887329
aF-2.9649879932403564
aF-3.882532835006714
aF-4.9007463455200195
aF-4.763334274291992
aF-3.9956912994384766
aF-5.859057903289795
aF-3.512885808944702
aF-6.587798595428467
aF-3.10211181640625
aF-8.186250686645508
aF-0.9395822882652283
aF-9.120055198669434
aF-3.108273506164551
aF2.1381068229675293
aF3.341728448867798
aF5.277825832366943
aF11.736051559448242
aF13.413469314575195
aF6.201901435852051
aF12.865049362182617
aF7.149090766906738
aF7.004998683929443
aF2.6157100200653076
aF-2.55151629447937
aF-5.578200340270996
aF2.203622341156006
aF-12.193744659423828
aF0.4965532720088959
aF-6.132667064666748
aF-8.975512504577637
aF-2.097311019897461
aF-8.178977966308594
aF3.094247579574585
aF-3.7818307876586914
aF8.326674461364746
aF0.6504334211349487
aF2.1306285858154297
aF-0.04055120050907135
aF1.8972359895706177
aF-2.1061787605285645
aF-0.8172313570976257
aF-1.561394453048706
aF-3.034184217453003
aF-2.163957118988037
aF-4.339346885681152
aF-2.3719635009765625
aF-5.366758823394775
aF-1.324041485786438
aF-8.749966621398926
aF-0.35352715849876404
aF-9.524754524230957
aF-2.5168964862823486
aF3.0175857543945312
aF3.1755378246307373
aF7.069491386413574
aF14.205965995788574
aF4.904781818389893
aF12.677267074584961
aF14.070999145507812
aF4.839544296264648
aF8.305519104003906
aF1.4262561798095703
aF-0.4878576397895813
aF-0.6933130025863647
aF-11.474616050720215
aF3.857907295227051
aF-9.082168579101562
aF-3.791372776031494
aF2.5053765773773193
aF-7.91287899017334
aF4.7461838722229
aF-1.846113681793213
aF0.8379967212677002
aF-1.0220835208892822
aF5.463807106018066
aF0.28305330872535706
aF1.4080009460449219
aF-0.8549121618270874
aF-0.5019512176513672
aF-2.5967659950256348
aF-0.9890636801719666
aF-3.447680950164795
aF-2.2511136531829834
aF-4.358357906341553
aF-3.7031102180480957
aF-5.274588584899902
aF-4.323355197906494
aF-3.7009263038635254
aF-5.596078395843506
aF-3.3438515663146973
aF-5.980544090270996
aF-6.082658290863037
aF-5.141303062438965
aF-4.921903133392334
aF-1.6549016237258911
aF4.818357467651367
aF6.5172505378723145
aF13.781396865844727
aF9.4973783493042
aF6.688996315002441
aF19.19001579284668
aF12.785886764526367
aF7.392666339874268
aF6.22233772277832
aF-0.0820385217666626
aF-3.510026216506958
aF-7.3412251472473145
aF-0.5316029787063599
aF-10.81925106048584
aF-4.345724582672119
aF-4.874311447143555
aF-9.509298324584961
aF3.4135921001434326
aF1.085310935974121
aF-5.153415203094482
aa(lp32
F2.5066912174224854
aF2.4950637817382812
aF2.4794578552246094
aF2.458977699279785
aF2.4311232566833496
aF2.3965797424316406
aF2.346670150756836
aF2.293677806854248
aF2.2285873889923096
aF2.149080276489258
aF2.0661258697509766
aF1.9704416990280151
aF1.8640869855880737
aF1.7586928606033325
aF1.6251755952835083
aF1.5345003604888916
aF1.4803028106689453
aF1.5970149040222168
aF1.793580412864685
aF1.9860913753509521
aF2.165073871612549
aF2.366111993789673
aF2.5079963207244873
aF2.5950815677642822
aF2.5516197681427
aF2.4381263256073
aF2.40811824798584
aF2.394638776779175
aF2.3353021144866943
aF2.299750566482544
aF2.279789924621582
aF2.2738664150238037
aF2.2577362060546875
aF2.1524548530578613
aF2.070362091064453
aF2.0326333045959473
aF2.091043472290039
aF2.1784274578094482
aF2.3050596714019775
aF2.355734348297119
aF2.434194564819336
aF2.496058464050293
aF2.541667938232422
aF2.5692455768585205
aF2.5860226154327393
aF2.586639165878296
aF2.577476978302002
aF2.5537664890289307
aF2.521071672439575
aF2.4795098304748535
aF2.4289162158966064
aF2.3710758686065674
aF2.3014698028564453
aF2.2187254428863525
aF2.1274261474609375
aF2.03220796585083
aF1.9267038106918335
aF1.8057224750518799
aF1.6847264766693115
aF1.5668466091156006
aF1.4736599922180176
aF1.300840139389038
aF1.2804040908813477
aF1.3182072639465332
aF1.5669111013412476
aF1.9113376140594482
aF1.9953525066375732
aF2.0785727500915527
aF2.2297072410583496
aF2.3799405097961426
aF2.4888134002685547
aF2.550144910812378
aF2.4863033294677734
aF2.4066457748413086
aF2.3853812217712402
aF2.302121639251709
aF2.2412209510803223
aF2.2373359203338623
aF2.240372657775879
aF2.2362489700317383
aF2.22208833694458
aF2.1592044830322266
aF2.121453285217285
aF2.1182432174682617
aF2.0709896087646484
aF1.9746601581573486
aF1.8603585958480835
aF1.749957799911499
aF1.5987625122070312
aF1.4634239673614502
aF1.4132778644561768
aF1.319117784500122
aF1.4227830171585083
aF1.6015182733535767
aF1.700142502784729
aF1.947226881980896
aF2.1978659629821777
aF2.3384804725646973
aF2.433098077774048
aF2.4945287704467773
aF2.515725612640381
aF2.490248441696167
aF2.482740879058838
aF2.498102903366089
aF2.49491286277771
aF2.478074312210083
aF2.455065965652466
aF2.4726552963256836
aF2.4493472576141357
aF2.4410641193389893
aF2.453488826751709
aF2.468945264816284
aF2.4274144172668457
aF2.414726734161377
aF2.452439785003662
aF2.5337297916412354
aF2.626119375228882
aF2.5456371307373047
aF2.4183011054992676
aF2.4225854873657227
aF2.5180554389953613
aF2.5517306327819824
aF2.500605821609497
aF2.490603446960449
aF2.539989471435547
aF2.520599365234375
aF2.507620334625244
aF2.4952316284179688
aF2.508678674697876
aF2.5053703784942627
aF2.5107274055480957
aF2.5117852687835693
aF2.480466842651367
aF2.465083599090576
aF2.5103297233581543
aF2.5489068031311035
aF2.4867920875549316
aF2.4576973915100098
aF2.524384021759033
aF2.564612865447998
aF2.4999256134033203
aF2.4470913410186768
aF2.517733335494995
aF2.580963134765625
aF2.5412466526031494
aF2.4941227436065674
aF2.497297525405884
aF2.5301859378814697
aF2.4848790168762207
aF2.4362030029296875
aF2.422508716583252
aF2.4553170204162598
aF2.415851593017578
aF2.407205581665039
aF2.438222646713257
aF2.444654941558838
aF2.415940046310425
aF2.4185538291931152
aF2.444392204284668
aF2.496918201446533
aF2.4682083129882812
aF2.4065117835998535
aF2.463439464569092
aF2.4946203231811523
aF2.469371795654297
aF2.4103431701660156
aF2.3358755111694336
aF2.3334388732910156
aF2.400221109390259
aF2.4079718589782715
aF2.334506034851074
aF2.331502914428711
aF2.395974636077881
aF2.4207029342651367
aF2.4417262077331543
aF2.3668742179870605
aF2.30190372467041
aF2.330416202545166
aF2.3354010581970215
aF2.2503817081451416
aF2.2337541580200195
aF2.289938449859619
aF2.3109536170959473
aF2.273268699645996
aF2.229753017425537
aF2.154372215270996
aF2.1496453285217285
aF2.222877025604248
aF2.258312702178955
aF2.3373641967773438
aF2.340792417526245
aF2.2972640991210938
aF2.2446112632751465
aF2.208176612854004
aF2.1796774864196777
aF2.203246831893921
aF2.211729049682617
aF2.167675256729126
aF2.171257257461548
aF2.2333011627197266
aF2.2579565048217773
aF2.201751708984375
aF2.172415256500244
aF2.214949369430542
aF2.2935009002685547
aF2.3846435546875
aF2.3203110694885254
aF2.1927757263183594
aF2.137159824371338
aF2.0922813415527344
aF2.00288724899292
aF1.9638826847076416
aF1.9201431274414062
aF1.8614751100540161
aF1.9296218156814575
aF1.87814462184906
aF2.115309476852417
aF2.2168779373168945
aF2.2931666374206543
aF2.340756416320801
aF2.3593928813934326
aF2.330606460571289
aF2.24259877204895
aF2.1754064559936523
aF2.1915907859802246
aF2.210172176361084
aF2.176117420196533
aF2.146346092224121
aF2.1285343170166016
aF2.158442735671997
aF2.12399959564209
aF2.1088826656341553
aF2.1347532272338867
aF2.172747850418091
aF2.1847310066223145
aF2.216427803039551
aF2.2532172203063965
aF2.267709493637085
aF2.2678396701812744
aF2.2545602321624756
aF2.2280197143554688
aF2.185256004333496
aF2.13802433013916
aF2.0706722736358643
aF1.9932537078857422
aF1.9051766395568848
aF1.8085873126983643
aF1.6927980184555054
aF1.6056147813796997
aF1.4681437015533447
aF1.3726475238800049
aF1.3023501634597778
aF1.2840020656585693
aF1.5180613994598389
aF1.7623109817504883
aF1.9293718338012695
aF2.0731983184814453
aF2.200787305831909
aF2.3150625228881836
aF2.4022228717803955
aF2.426208019256592
aF2.3601913452148438
aF2.342522382736206
aF2.3521602153778076
aF2.3007993698120117
aF2.2261180877685547
aF2.2638726234436035
aF2.307337760925293
aF2.292431116104126
aF2.221968650817871
aF2.1938588619232178
aF2.246635913848877
aF2.3570480346679688
aF2.435225486755371
aF2.520940065383911
aF2.5887444019317627
aF2.641049385070801
aF2.6800734996795654
aF2.704641103744507
aF2.7148213386535645
aF2.711236000061035
aF2.698364019393921
aF2.673182487487793
aF2.640615463256836
aF2.599458932876587
aF2.5481739044189453
aF2.4894604682922363
aF2.4249935150146484
aF2.351710557937622
aF2.270139694213867
aF2.174356460571289
aF2.0800795555114746
aF1.9728442430496216
aF1.8546912670135498
aF1.7448759078979492
aF1.5856962203979492
aF1.5146437883377075
aF1.4294538497924805
aF1.3167164325714111
aF1.3037269115447998
aF1.4315712451934814
aF1.6940797567367554
aF1.9221457242965698
aF2.0461790561676025
aF2.124998092651367
aF2.2453689575195312
aF2.376176357269287
aF2.42329478263855
aF2.4047017097473145
aF2.319822311401367
aF2.2791213989257812
aF2.332533836364746
aF2.331303119659424
aF2.2546653747558594
aF2.164247512817383
aF2.0619235038757324
aF1.9087680578231812
aF2.013866662979126
aF2.0376954078674316
aF2.1208853721618652
aF2.18687105178833
aF2.233701229095459
aF2.2516067028045654
aF2.2688229084014893
aF2.2666614055633545
aF2.2563419342041016
aF2.2271485328674316
aF2.1872730255126953
aF2.1371822357177734
aF2.0786399841308594
aF2.0052502155303955
aF1.9175851345062256
aF1.819446086883545
aF1.7325375080108643
aF1.6042758226394653
aF1.5245459079742432
aF1.4653412103652954
aF1.4107837677001953
aF1.402963399887085
aF1.5431838035583496
aF1.809227705001831
aF2.029247760772705
aF2.176569700241089
aF2.3031797409057617
aF2.4087371826171875
aF2.4480412006378174
aF2.396822929382324
aF2.3773131370544434
aF2.3837485313415527
aF2.3350753784179688
aF2.264763116836548
aF2.305756092071533
aF2.329618453979492
aF2.2838807106018066
aF2.2228336334228516
aF2.196352005004883
aF2.217282295227051
aF2.307114601135254
aF2.3768348693847656
aF2.4355721473693848
aF2.47110652923584
aF2.489288330078125
aF2.4912772178649902
aF2.4797756671905518
aF2.4582951068878174
aF2.424198865890503
aF2.3803048133850098
aF2.32816219329834
aF2.26826810836792
aF2.200037956237793
aF2.1147115230560303
aF2.023556709289551
aF1.9252723455429077
aF1.8178811073303223
aF1.6981745958328247
aF1.5875881910324097
aF1.4707026481628418
aF1.3275178670883179
aF1.2423601150512695
aF1.0521845817565918
aF0.9835222363471985
aF1.0433272123336792
aF1.3569514751434326
aF1.6542950868606567
aF1.6992096900939941
aF1.8696504831314087
aF2.1462783813476562
aF2.323233127593994
aF2.4078316688537598
aF2.3857860565185547
aF2.3131487369537354
aF2.277252674102783
aF2.2618045806884766
aF2.2735137939453125
aF2.235991954803467
aF2.1672587394714355
aF2.0685791969299316
aF1.9957184791564941
aF2.058777332305908
aF2.0529913902282715
aa(lp33
F0.0012790552573278546
aF-4.575024604797363
aF0.45959946513175964
aF-1.2369685173034668
aF-3.069789171218872
aF-3.964893102645874
aF-5.452378273010254
aF-5.89860725402832
aF-6.404095649719238
aF-7.748878002166748
aF-9.242344856262207
aF-10.1732816696167
aF-10.566007614135742
aF-9.44788932800293
aF-15.6943941116333
aF-3.894216299057007
aF-0.38232073187828064
aF17.486404418945312
aF19.947843551635742
aF17.477828979492188
aF18.456558227539062
aF16.928152084350586
aF12.339180946350098
aF-0.6004800796508789
aF-7.807310104370117
aF-6.675356864929199
aF-2.8819777965545654
aF-1.490156888961792
aF-6.4200119972229
aF-5.206717014312744
aF4.05566930770874
aF-2.9025676250457764
aF-9.256756782531738
aF-7.130613327026367
aF-5.5759382247924805
aF-1.6425830125808716
aF11.171767234802246
aF9.394892692565918
aF3.5187766551971436
aF10.521575927734375
aF8.053692817687988
aF5.450879096984863
aF4.08959436416626
aF2.1828274726867676
aF0.7759079933166504
aF-0.39243799448013306
aF-1.3901633024215698
aF-2.3960158824920654
aF-3.425079345703125
aF-4.649095058441162
aF-5.497624397277832
aF-6.13771915435791
aF-7.5753655433654785
aF-7.4749016761779785
aF-8.964773178100586
aF-11.019309997558594
aF-10.128843307495117
aF-11.533143043518066
aF-13.366315841674805
aF-7.4118475914001465
aF-14.996886253356934
aF-16.394554138183594
aF7.081367492675781
aF8.949851036071777
aF39.331111907958984
aF21.553762435913086
aF3.9435887336730957
aF10.369609832763672
aF17.78262710571289
aF11.418729782104492
aF10.782419204711914
aF-3.3977367877960205
aF-5.620430946350098
aF-6.189719200134277
aF-4.322894096374512
aF-4.538818359375
aF-3.1185531616210938
aF-5.551060676574707
aF4.246277332305908
aF2.1910741329193115
aF-10.218878746032715
aF-2.540100336074829
aF-4.337363243103027
aF-3.6378908157348633
aF-4.826871871948242
aF-9.205988883972168
aF-13.35560131072998
aF-9.010671615600586
aF-21.605758666992188
aF-4.2897257804870605
aF-1.9352895021438599
aF-12.045219421386719
aF21.422788619995117
aF13.104089736938477
aF18.556028366088867
aF24.787588119506836
aF19.84639549255371
aF12.137164115905762
aF6.424306392669678
aF5.877907752990723
aF-4.131796360015869
aF2.224126100540161
aF-1.7495323419570923
aF3.6085071563720703
aF-5.454179763793945
aF1.6200121641159058
aF-2.876830577850342
aF3.122354745864868
aF-6.707371234893799
aF2.685349225997925
aF1.6868337392807007
aF-2.2700729370117188
aF-0.9292517304420471
aF-3.5694806575775146
aF11.637946128845215
aF8.470355987548828
aF-1.0927692651748657
aF-8.369473457336426
aF-10.258070945739746
aF6.374687671661377
aF7.504977703094482
aF-2.45719575881958
aF-1.2760567665100098
aF-1.7221282720565796
aF7.739681243896484
aF-5.584248065948486
aF-3.7800979614257812
aF6.265511989593506
aF-4.652868270874023
aF1.332366704940796
aF0.3751973509788513
aF0.4390619397163391
aF-8.718393325805664
aF7.158476829528809
aF7.066971778869629
aF-8.074941635131836
aF-3.5512871742248535
aF5.159846782684326
aF1.7464905977249146
aF2.0287952423095703
aF-5.217104434967041
aF-0.708840012550354
aF5.928598880767822
aF5.668285846710205
aF-11.971059799194336
aF-0.2452903836965561
aF3.426684856414795
aF-0.25092774629592896
aF-7.014214038848877
aF-0.11085737496614456
aF-2.2679409980773926
aF4.837298393249512
aF-6.3929972648620605
aF-0.39792123436927795
aF5.968456268310547
aF-2.6054937839508057
aF-1.5566744804382324
aF1.9896256923675537
aF5.058528423309326
aF-3.509199857711792
aF-1.7180668115615845
aF-3.279772996902466
aF6.031252861022949
aF1.6647303104400635
aF-5.663853645324707
aF-5.850910663604736
aF-6.1111860275268555
aF4.5647711753845215
aF4.77901029586792
aF-4.699424743652344
aF-2.237001419067383
aF0.3911121189594269
aF9.436059951782227
aF-1.9584165811538696
aF-1.7532154321670532
aF-4.143070697784424
aF-4.363074779510498
aF-0.3336459696292877
aF0.801235556602478
aF-9.541950225830078
aF1.2153853178024292
aF6.327836513519287
aF0.283098042011261
aF-7.263432502746582
aF-2.8326218128204346
aF-3.7508411407470703
aF0.19169923663139343
aF10.354522705078125
aF2.0361297130584717
aF4.677192687988281
aF-1.7642333507537842
aF-3.7330822944641113
aF-9.205458641052246
aF0.038165830075740814
aF2.171208381652832
aF-2.9798498153686523
aF2.051119327545166
aF-5.074180603027344
aF3.171466827392578
aF5.680139064788818
aF-1.2289440631866455
aF-4.631826877593994
aF-3.268906831741333
aF11.60333251953125
aF8.255367279052734
aF-0.3004569113254547
aF-7.986988067626953
aF-11.03484058380127
aF-5.888312816619873
aF-3.5340094566345215
aF-8.483168601989746
aF-5.09842586517334
aF-4.595279216766357
aF-0.033763062208890915
aF-1.821410894393921
aF12.120773315429688
aF21.694747924804688
aF1.8594862222671509
aF8.975737571716309
aF5.478400707244873
aF-3.598729133605957
aF-1.6748695373535156
aF-10.732522964477539
aF-2.767139434814453
aF2.3491368293762207
aF2.2441418170928955
aF-8.675874710083008
aF-0.3767831325531006
aF0.9993738532066345
aF0.8047394752502441
aF-4.914386749267578
aF2.9543731212615967
aF3.592823028564453
aF-0.9570658802986145
aF2.4763283729553223
aF5.318613052368164
aF3.1356921195983887
aF0.49210473895072937
aF-0.44321581721305847
aF-1.807154655456543
aF-2.6209828853607178
aF-4.6103620529174805
aF-6.230113506317139
aF-6.4298481941223145
aF-9.201155662536621
aF-8.233380317687988
aF-8.763697624206543
aF-12.615655899047852
aF-6.92578649520874
aF-17.77138900756836
aF-6.936986446380615
aF-0.972442090511322
aF6.851369380950928
aF27.790260314941406
aF21.827739715576172
aF12.457677841186523
aF15.339582443237305
aF10.806114196777344
aF11.162176132202148
aF6.0112385749816895
aF-4.382084369659424
aF-4.282735824584961
aF3.0986406803131104
aF-5.2074503898620605
aF-4.272855281829834
aF-5.509280681610107
aF6.775834083557129
aF3.32387638092041
aF-7.271027088165283
aF-3.886746644973755
aF-0.9627884030342102
aF14.080368041992188
aF-0.37296828627586365
aF10.323295593261719
aF7.713303089141846
aF5.148281574249268
aF4.718879222869873
aF2.8106656074523926
aF1.39315664768219
aF0.4712064862251282
aF-0.9891109466552734
aF-1.531056523323059
aF-2.6768910884857178
aF-3.9548323154449463
aF-4.432834148406982
aF-5.626491069793701
aF-5.651279449462891
aF-6.5186848640441895
aF-8.598480224609375
aF-7.424832820892334
aF-9.647171974182129
aF-10.49759292602539
aF-10.69014835357666
aF-11.783072471618652
aF-10.051313400268555
aF-16.895248413085938
aF-1.118966817855835
aF-10.4515962600708
aF-13.40585708618164
aF10.663785934448242
aF22.930763244628906
aF28.893720626831055
aF13.326643943786621
aF10.972705841064453
aF6.725421905517578
aF12.308469772338867
aF13.41001033782959
aF-1.5811704397201538
aF-6.388444423675537
aF-2.3054633140563965
aF-3.641629934310913
aF6.199373722076416
aF-3.1211254596710205
aF-9.262351989746094
aF-10.784528732299805
aF-11.754364013671875
aF-7.791290283203125
aF9.090750694274902
aF4.917174816131592
aF7.9858245849609375
aF6.134862422943115
aF0.8110942840576172
aF1.8793095350265503
aF0.9125764966011047
aF-0.8412646055221558
aF-1.6765875816345215
aF-2.441390037536621
aF-4.640671730041504
aF-5.50968074798584
aF-6.627113342285156
aF-7.501142978668213
aF-8.995489120483398
aF-9.626120567321777
aF-8.525432586669922
aF-14.5712308883667
aF-2.7658936977386475
aF-6.3369140625
aF-8.69473934173584
aF9.934492111206055
aF24.600282669067383
aF25.00711441040039
aF17.975831985473633
aF12.694563865661621
aF12.525546073913574
aF7.638948440551758
aF-2.2409591674804688
aF-3.3748371601104736
aF1.3273859024047852
aF-5.746562957763672
aF-3.339003562927246
aF-6.1401238441467285
aF6.215035438537598
aF1.1876075267791748
aF-9.78353500366211
aF-2.9991753101348877
aF-0.41991108655929565
aF5.825692653656006
aF4.18047571182251
aF6.271882057189941
aF4.722421646118164
aF1.9083880186080933
aF1.7304505109786987
aF-0.538800060749054
aF-2.0237619876861572
aF-2.5675957202911377
aF-3.208768367767334
aF-4.75766658782959
aF-5.237854480743408
aF-6.592848300933838
aF-7.469509601593018
aF-7.4752068519592285
aF-10.066688537597656
aF-10.158007621765137
aF-10.424275398254395
aF-12.994324684143066
aF-7.354522228240967
aF-17.875314712524414
aF-5.9046149253845215
aF-12.151644706726074
aF-20.18701171875
aF2.3578033447265625
aF16.456356048583984
aF40.11748123168945
aF13.56019401550293
aF7.265734672546387
aF26.359638214111328
aF23.731714248657227
aF12.761096000671387
aF1.1850229501724243
aF-1.955672264099121
aF-9.370107650756836
aF-1.0400176048278809
aF-0.6387176513671875
aF0.5509747266769409
aF-5.619821071624756
aF-8.898126602172852
aF-9.120031356811523
aF-0.14672259986400604
aF-1.672656774520874
aF1.269837498664856
aa(lp34
F1.0
aF1.0
aF1.0
aF1.0
aF1.0
aF1.0
aF1.0
aF1.0
aF1.0
aF1.0
aF1.0
aF1.0
aF1.0
aF1.0
aF1.0
aF0.0
aF0.0
aF0.0
aF0.0
aF0.0
aF0.0
aF0.0
aF0.0
aF0.0
aF0.0
aF0.0
aF0.0
aF0.0
aF0.0
aF0.0
aF0.0
aF0.0
aF0.0
aF0.0
aF0.0
aF0.0
aF1.0
aF1.0
aF1.0
aF1.0
aF1.0
aF1.0
aF1.0
aF1.0
aF1.0
aF1.0
aF1.0
aF1.0
aF1.0
aF1.0
aF1.0
aF1.0
aF1.0
aF1.0
aF1.0
aF1.0
aF1.0
aF1.0
aF1.0
aF1.0
aF0.0
aF1.0
aF0.0
aF0.0
aF0.0
aF0.0
aF0.0
aF0.0
aF0.0
aF0.0
aF0.0
aF0.0
aF0.0
aF0.0
aF0.0
aF0.0
aF0.0
aF0.0
aF0.0
aF0.0
aF0.0
aF1.0
aF1.0
aF1.0
aF1.0
aF1.0
aF1.0
aF1.0
aF0.0
aF1.0
aF0.0
aF0.0
aF0.0
aF0.0
aF0.0
aF0.0
aF0.0
aF0.0
aF0.0
aF0.0
aF0.0
aF0.0
aF0.0
aF0.0
aF0.0
aF0.0
aF0.0
aF0.0
aF0.0
aF0.0
aF0.0
aF0.0
aF0.0
aF0.0
aF0.0
aF0.0
aF0.0
aF0.0
aF0.0
aF0.0
aF0.0
aF0.0
aF0.0
aF0.0
aF0.0
aF0.0
aF0.0
aF0.0
aF0.0
aF0.0
aF0.0
aF0.0
aF0.0
aF0.0
aF0.0
aF0.0
aF0.0
aF0.0
aF0.0
aF0.0
aF0.0
aF0.0
aF0.0
aF0.0
aF0.0
aF0.0
aF0.0
aF0.0
aF0.0
aF0.0
aF0.0
aF0.0
aF0.0
aF0.0
aF0.0
aF0.0
aF0.0
aF0.0
aF0.0
aF0.0
aF0.0
aF0.0
aF0.0
aF0.0
aF0.0
aF0.0
aF0.0
aF0.0
aF0.0
aF0.0
aF0.0
aF0.0
aF0.0
aF0.0
aF0.0
aF0.0
aF0.0
aF0.0
aF0.0
aF0.0
aF0.0
aF0.0
aF0.0
aF0.0
aF0.0
aF0.0
aF0.0
aF0.0
aF0.0
aF0.0
aF0.0
aF0.0
aF0.0
aF0.0
aF0.0
aF0.0
aF0.0
aF0.0
aF0.0
aF0.0
aF0.0
aF0.0
aF0.0
aF0.0
aF0.0
aF0.0
aF0.0
aF0.0
aF0.0
aF0.0
aF0.0
aF0.0
aF0.0
aF1.0
aF0.0
aF1.0
aF0.0
aF0.0
aF0.0
aF0.0
aF0.0
aF0.0
aF0.0
aF0.0
aF0.0
aF0.0
aF0.0
aF0.0
aF0.0
aF0.0
aF0.0
aF0.0
aF0.0
aF1.0
aF1.0
aF1.0
aF1.0
aF1.0
aF1.0
aF1.0
aF1.0
aF1.0
aF1.0
aF1.0
aF1.0
aF1.0
aF1.0
aF1.0
aF1.0
aF1.0
aF1.0
aF0.0
aF0.0
aF0.0
aF0.0
aF0.0
aF0.0
aF0.0
aF0.0
aF0.0
aF0.0
aF0.0
aF0.0
aF0.0
aF0.0
aF0.0
aF0.0
aF0.0
aF0.0
aF0.0
aF0.0
aF1.0
aF1.0
aF1.0
aF1.0
aF1.0
aF1.0
aF1.0
aF1.0
aF1.0
aF1.0
aF1.0
aF1.0
aF1.0
aF1.0
aF1.0
aF1.0
aF1.0
aF1.0
aF1.0
aF1.0
aF1.0
aF1.0
aF1.0
aF1.0
aF1.0
aF1.0
aF0.0
aF0.0
aF0.0
aF0.0
aF0.0
aF0.0
aF0.0
aF0.0
aF0.0
aF0.0
aF0.0
aF0.0
aF0.0
aF0.0
aF0.0
aF0.0
aF0.0
aF0.0
aF0.0
aF1.0
aF1.0
aF1.0
aF1.0
aF1.0
aF1.0
aF1.0
aF1.0
aF1.0
aF1.0
aF1.0
aF1.0
aF1.0
aF1.0
aF1.0
aF1.0
aF1.0
aF1.0
aF1.0
aF1.0
aF0.0
aF0.0
aF0.0
aF0.0
aF0.0
aF0.0
aF0.0
aF0.0
aF0.0
aF0.0
aF0.0
aF0.0
aF0.0
aF0.0
aF0.0
aF0.0
aF0.0
aF0.0
aF0.0
aF0.0
aF1.0
aF1.0
aF1.0
aF1.0
aF1.0
aF1.0
aF1.0
aF1.0
aF1.0
aF1.0
aF1.0
aF1.0
aF1.0
aF1.0
aF1.0
aF1.0
aF1.0
aF1.0
aF1.0
aF1.0
aF0.0
aF1.0
aF0.0
aF0.0
aF0.0
aF0.0
aF0.0
aF0.0
aF0.0
aF0.0
aF0.0
aF0.0
aF0.0
aF0.0
aF0.0
aF0.0
aF0.0
aF0.0
aF0.0
aF0.0
aF0.0
aF1.0
aF1.0
aF1.0
aa(lp35
F4.323352813720703
aF5.83624267578125
aF11.742341041564941
aF8.739083290100098
aF10.584836959838867
aF8.58841323852539
aF9.968716621398926
aF8.178165435791016
aF9.005810737609863
aF7.817723274230957
aF7.951868534088135
aF6.1673359870910645
aF5.773336887359619
aF2.9406657218933105
aF3.962907552719116
aF0.9189630150794983
aF0.19705234467983246
aF0.2182704210281372
aF0.17485035955905914
aF0.18222059309482574
aF0.10794412344694138
aF0.15116432309150696
aF0.1263163685798645
aF0.14178049564361572
aF0.12935151159763336
aF0.13773509860038757
aF0.12678468227386475
aF0.08620961755514145
aF0.06286787986755371
aF0.12682904303073883
aF0.0715782418847084
aF0.08469311892986298
aF0.07692253589630127
aF0.12083480507135391
aF0.05682758241891861
aF0.14654365181922913
aF7.677284240722656
aF4.218838691711426
aF1.272870659828186
aF18.105377197265625
aF7.469503402709961
aF14.818405151367188
aF9.731807708740234
aF13.791604995727539
aF11.279327392578125
aF12.448934555053711
aF11.177541732788086
aF11.36082935333252
aF10.080486297607422
aF9.569058418273926
aF8.79376220703125
aF8.47437858581543
aF8.163551330566406
aF8.062647819519043
aF7.397717475891113
aF6.747432231903076
aF5.117427825927734
aF4.6495232582092285
aF3.0769152641296387
aF1.3685449361801147
aF0.29268884658813477
aF1.1943293809890747
aF0.23703867197036743
aF0.13437552750110626
aF0.158290296792984
aF0.2634150981903076
aF0.15182960033416748
aF0.19494159519672394
aF0.14167584478855133
aF0.13691799342632294
aF0.1379736065864563
aF0.11421126127243042
aF0.1489568054676056
aF0.11962558329105377
aF0.11366758495569229
aF0.10201653093099594
aF0.09318824112415314
aF0.07056102156639099
aF0.13017450273036957
aF0.12375826388597488
aF0.07463911920785904
aF1.047183632850647
aF8.912494659423828
aF10.1570463180542
aF8.829506874084473
aF9.073131561279297
aF5.858382225036621
aF1.7786623239517212
aF0.9818933606147766
aF1.481149435043335
aF0.17914916574954987
aF0.16395774483680725
aF0.2340138554573059
aF0.11129399389028549
aF0.08997592329978943
aF0.09005958586931229
aF0.0795474722981453
aF0.07584764808416367
aF0.09181613475084305
aF0.10353005677461624
aF0.0861939787864685
aF0.17379802465438843
aF0.05503802001476288
aF0.09520310163497925
aF0.05901840701699257
aF0.1213553324341774
aF0.06198744475841522
aF0.10240556299686432
aF0.06776625663042068
aF0.1662220060825348
aF0.048319071531295776
aF0.05258697271347046
aF0.06278859823942184
aF0.014272688888013363
aF0.17253698408603668
aF0.0749986469745636
aF0.05017932876944542
aF0.04817662388086319
aF0.050279807299375534
aF0.17040076851844788
aF0.04534875229001045
aF0.058713398873806
aF0.1031486764550209
aF0.014661082997918129
aF0.09130037575960159
aF0.1520930379629135
aF0.14677348732948303
aF0.05360628664493561
aF0.1281713992357254
aF0.1112271174788475
aF0.03845658525824547
aF0.05593394488096237
aF0.04338820278644562
aF0.1647181361913681
aF0.0753500908613205
aF0.08321656286716461
aF0.1381167620420456
aF0.030110977590084076
aF0.08207761496305466
aF0.04606187343597412
aF0.07714492082595825
aF0.08296187967061996
aF0.008595219813287258
aF0.07794100791215897
aF0.0779263898730278
aF0.1532951146364212
aF0.05191395804286003
aF0.0802915170788765
aF0.04855169355869293
aF0.08836770057678223
aF0.05398551747202873
aF0.07808132469654083
aF0.12617920339107513
aF0.1254686564207077
aF0.049770187586545944
aF0.12316460907459259
aF0.09442129731178284
aF0.03275095671415329
aF0.08177018910646439
aF0.09272409230470657
aF0.10800063610076904
aF0.06627786159515381
aF0.08454268425703049
aF0.10251501202583313
aF0.09037604182958603
aF0.059461962431669235
aF0.07590772956609726
aF0.11616946756839752
aF0.079533152282238
aF0.10091254115104675
aF0.07142351567745209
aF0.04247140884399414
aF0.08530011028051376
aF0.11919394880533218
aF0.08967753499746323
aF0.09243325889110565
aF0.08445008844137192
aF0.05919509008526802
aF0.07134082168340683
aF0.11285631358623505
aF0.1598304808139801
aF0.05848642811179161
aF0.10207511484622955
aF0.06903283298015594
aF0.08415353298187256
aF0.08913961797952652
aF0.04936567321419716
aF0.10447241365909576
aF0.11604538559913635
aF0.14465022087097168
aF0.09012302756309509
aF0.09430208057165146
aF0.052201349288225174
aF0.08632899820804596
aF0.10841646045446396
aF0.0875183716416359
aF0.0633075162768364
aF0.10808534175157547
aF0.14254410564899445
aF0.0636940598487854
aF0.11230975389480591
aF0.08176865428686142
aF0.041185494512319565
aF0.12349215149879456
aF0.11280732601881027
aF0.10707143694162369
aF0.07544603198766708
aF0.08594992011785507
aF0.07050354778766632
aF0.08690625429153442
aF0.09332621842622757
aF0.07616117596626282
aF0.07563779503107071
aF7.504634380340576
aF0.4531768262386322
aF9.500597953796387
aF0.1457611322402954
aF0.14079095423221588
aF0.2637244164943695
aF0.15559689700603485
aF0.14725077152252197
aF0.11996576935052872
aF0.15777204930782318
aF0.11258924007415771
aF0.08656688034534454
aF0.13776662945747375
aF0.11453243345022202
aF0.1549900323152542
aF0.10027385503053665
aF0.11542169004678726
aF0.08462119102478027
aF0.13943789899349213
aF0.10389147698879242
aF1.6739248037338257
aF5.861106872558594
aF14.25382137298584
aF8.868321418762207
aF13.864570617675781
aF10.298068046569824
aF12.023488998413086
aF9.544548034667969
aF10.520153999328613
aF8.588324546813965
aF8.971196174621582
aF7.900744438171387
aF7.46671199798584
aF4.718287944793701
aF5.7156171798706055
aF1.5214850902557373
aF1.632768988609314
aF2.9265406131744385
aF0.32023146748542786
aF0.24807019531726837
aF0.2512868344783783
aF0.2318938970565796
aF0.2027585804462433
aF0.2034141719341278
aF0.16435959935188293
aF0.1977827399969101
aF0.18655695021152496
aF0.19100651144981384
aF0.19785059988498688
aF0.17853765189647675
aF0.18929710984230042
aF0.1530449390411377
aF0.12335444241762161
aF0.1488446742296219
aF0.1736096739768982
aF0.16276150941848755
aF0.1221671774983406
aF0.12085168063640594
aF6.877702236175537
aF5.5011725425720215
aF15.860251426696777
aF10.609922409057617
aF13.520977973937988
aF13.373087882995605
aF13.468749046325684
aF13.662357330322266
aF14.346902847290039
aF13.95899772644043
aF12.523554801940918
aF12.185256004333496
aF11.190023422241211
aF10.582245826721191
aF9.811050415039062
aF9.554430961608887
aF8.942578315734863
aF8.923336029052734
aF7.555620193481445
aF7.6548004150390625
aF6.8922247886657715
aF5.014313220977783
aF5.44524621963501
aF2.3113906383514404
aF4.3208208084106445
aF1.2409007549285889
aF0.35438546538352966
aF0.39419734477996826
aF0.3263775408267975
aF0.28875279426574707
aF0.3090011179447174
aF0.3030707836151123
aF0.25954368710517883
aF0.2520325779914856
aF0.2684780955314636
aF0.26215288043022156
aF0.26733171939849854
aF0.24689310789108276
aF0.21588021516799927
aF0.21065804362297058
aF0.21850986778736115
aF0.22880345582962036
aF0.21941106021404266
aF0.17962612211704254
aF0.18388353288173676
aF7.409290313720703
aF2.4748098850250244
aF16.929147720336914
aF8.443761825561523
aF11.90249252319336
aF7.0894856452941895
aF16.348215103149414
aF9.847973823547363
aF14.412151336669922
aF9.729372024536133
aF12.477996826171875
aF9.555554389953613
aF10.669767379760742
aF8.542914390563965
aF8.422417640686035
aF7.144499778747559
aF6.447425365447998
aF3.060922145843506
aF4.7647624015808105
aF1.4067412614822388
aF0.3897169232368469
aF0.4071209728717804
aF0.3310282528400421
aF0.2895434498786926
aF0.333641916513443
aF0.29898881912231445
aF0.23968574404716492
aF0.2671268880367279
aF0.2738741636276245
aF0.262089341878891
aF0.24080802500247955
aF0.2502520978450775
aF0.2317090630531311
aF0.2037041336297989
aF0.1948886662721634
aF0.22485293447971344
aF0.22576643526554108
aF0.21831229329109192
aF0.15965057909488678
aF0.16216690838336945
aF6.212252140045166
aF5.582062721252441
aF14.209699630737305
aF11.273735046386719
aF12.094764709472656
aF11.858505249023438
aF13.284955978393555
aF11.051176071166992
aF11.420489311218262
aF11.040592193603516
aF10.075428009033203
aF9.938024520874023
aF8.723759651184082
aF8.229719161987305
aF8.072454452514648
aF7.118648529052734
aF6.581878662109375
aF4.442516803741455
aF4.650157451629639
aF2.160144805908203
aF0.605798602104187
aF1.9395204782485962
aF0.3780727684497833
aF0.3196992576122284
aF0.3007020354270935
aF0.2402200698852539
aF0.22536836564540863
aF0.31920549273490906
aF0.20685236155986786
aF0.18942053616046906
aF0.23423592746257782
aF0.22162407636642456
aF0.21557241678237915
aF0.20859074592590332
aF0.19416958093643188
aF0.19979748129844666
aF0.17742283642292023
aF0.17198769748210907
aF0.18174344301223755
aF0.1688927412033081
aF0.14543600380420685
aF16.775390625
aF4.170408248901367
aF12.525289535522461
aa(lp36
F-0.625
aF-0.625
aF-0.625
aF-0.625
aF-0.625
aF-0.625
aF-0.625
aF-0.625
aF-0.625
aF-0.48834264278411865
aF-0.3810230493545532
aF-0.23440541326999664
aF-0.2068357914686203
aF-0.11744190007448196
aF-0.047738898545503616
aF0.45111632347106934
aF0.5448734760284424
aF0.625
aF0.625
aF0.625
aF0.4535946547985077
aF0.21802422404289246
aF-0.06329230219125748
aF-0.19582146406173706
aF-0.22597377002239227
aF-0.23926089704036713
aF0.0791730210185051
aF-0.08148451149463654
aF-0.017701322212815285
aF-0.0742528960108757
aF0.17730693519115448
aF-0.05389460176229477
aF-0.09618924558162689
aF-0.10628991574048996
aF0.05008697882294655
aF0.2546510100364685
aF0.04248802736401558
aF-0.625
aF-0.625
aF-0.625
aF-0.625
aF-0.625
aF-0.625
aF-0.625
aF-0.625
aF-0.625
aF-0.625
aF-0.625
aF-0.625
aF-0.625
aF-0.625
aF-0.625
aF-0.6076745986938477
aF-0.5577037930488586
aF-0.4128602147102356
aF-0.285504013299942
aF-0.2271525263786316
aF-0.0822896659374237
aF-0.052007075399160385
aF-0.14545834064483643
aF0.08571425825357437
aF0.3166961073875427
aF0.625
aF0.625
aF0.625
aF0.625
aF0.3432229459285736
aF0.3403446674346924
aF0.2553391456604004
aF-0.04379758983850479
aF-0.10908056050539017
aF-0.20140045881271362
aF-0.22909210622310638
aF-0.2024850696325302
aF0.0965735986828804
aF-0.1254408210515976
aF0.10930908471345901
aF0.005210330709815025
aF0.1774638593196869
aF0.2144913226366043
aF-0.06129641830921173
aF-0.5649563074111938
aF-0.625
aF-0.625
aF-0.625
aF-0.27842846512794495
aF-0.21109257638454437
aF-0.15013638138771057
aF0.002390981651842594
aF-0.1518343836069107
aF0.5107741355895996
aF0.44937649369239807
aF0.625
aF0.625
aF0.625
aF0.625
aF0.625
aF0.35235893726348877
aF0.1481262892484665
aF0.052553389221429825
aF-0.007877220399677753
aF0.16199925541877747
aF-0.09722471237182617
aF0.10849540680646896
aF-0.0782526284456253
aF0.14959649741649628
aF-0.05910668149590492
aF0.15045899152755737
aF-0.011323949322104454
aF0.21514686942100525
aF0.1975206583738327
aF0.014563960023224354
aF0.24071864783763885
aF0.0024015004746615887
aF0.17963765561580658
aF0.05771920830011368
aF-0.06154206767678261
aF-0.10699108988046646
aF-0.0461413636803627
aF0.238895446062088
aF0.18799613416194916
aF0.03689436987042427
aF0.303316205739975
aF0.01786002330482006
aF0.19805386662483215
aF-0.009736008942127228
aF0.0072194854728877544
aF0.1758168786764145
aF0.05443370342254639
aF0.14462091028690338
aF-0.04713330790400505
aF0.26459693908691406
aF-0.010159489698708057
aF0.22501811385154724
aF0.10486545413732529
aF0.0006690095760859549
aF0.27175378799438477
aF-0.0365525521337986
aF0.233886256814003
aF0.18911737203598022
aF0.014333400875329971
aF0.22690846025943756
aF-0.08162935078144073
aF0.1321130096912384
aF-0.11941748857498169
aF0.2304394543170929
aF-0.020836619660258293
aF0.22441695630550385
aF-0.052561767399311066
aF0.2981669306755066
aF-0.013865259476006031
aF0.22690008580684662
aF0.01190957985818386
aF0.303241491317749
aF0.15917114913463593
aF0.017241470515727997
aF0.24051499366760254
aF-0.08700413256883621
aF0.17246483266353607
aF-0.04943878948688507
aF0.24498341977596283
aF-0.027884671464562416
aF0.1500251740217209
aF-0.0319281630218029
aF-0.06429997086524963
aF-0.02478277124464512
aF0.03367207571864128
aF0.18792392313480377
aF0.1861831396818161
aF0.04682717099785805
aF0.24364641308784485
aF-0.03362560272216797
aF0.1829882711172104
aF-0.055229686200618744
aF0.10808203369379044
aF-0.052108027040958405
aF0.11757581681013107
aF-0.07267012447118759
aF0.13890710473060608
aF-0.027768263593316078
aF0.2746371626853943
aF0.20254245400428772
aF0.08256757259368896
aF-0.10779105871915817
aF0.013782900758087635
aF0.2638830840587616
aF-0.006761581636965275
aF0.3271483778953552
aF-0.030564922839403152
aF0.2235306352376938
aF-0.03866559639573097
aF0.08713750541210175
aF-0.06083965674042702
aF0.2912261188030243
aF0.1425291895866394
aF0.011195933446288109
aF0.1630529761314392
aF0.010367529466748238
aF0.2453986257314682
aF0.13879697024822235
aF-0.07557567954063416
aF0.16160543262958527
aF-0.05979379266500473
aF0.23699107766151428
aF0.021481681615114212
aF0.12799042463302612
aF-0.19566868245601654
aF-0.21865826845169067
aF-0.10383415222167969
aF-0.016052553430199623
aF-0.15723557770252228
aF-0.00638502836227417
aF0.20096153020858765
aF-0.625
aF0.22520889341831207
aF0.13685716688632965
aF0.503940761089325
aF0.027405885979533195
aF0.299101859331131
aF-0.003352147527039051
aF-0.057967618107795715
aF0.022646432742476463
aF-0.09847026318311691
aF0.12596088647842407
aF-0.040053874254226685
aF0.1798706352710724
aF-0.04025028273463249
aF0.23538419604301453
aF-0.04405071958899498
aF0.16921919584274292
aF0.005707248579710722
aF0.23365825414657593
aF0.023266920819878578
aF-0.625
aF-0.625
aF-0.625
aF-0.625
aF-0.625
aF-0.625
aF-0.625
aF-0.625
aF-0.625
aF-0.6029266119003296
aF-0.5454472303390503
aF-0.31144827604293823
aF-0.36051830649375916
aF-0.208724245429039
aF-0.09000559896230698
aF-0.17149561643600464
aF0.2200874239206314
aF-0.0113103948533535
aF0.5276579856872559
aF0.625
aF0.625
aF0.625
aF0.5954971313476562
aF0.5153304934501648
aF0.18948747217655182
aF0.026939895004034042
aF-0.018597660586237907
aF-0.17206263542175293
aF-0.21432216465473175
aF-0.0017311590490862727
aF-0.19872955977916718
aF-0.03157477080821991
aF-0.0946597084403038
aF0.14536356925964355
aF0.145155668258667
aF-0.027164196595549583
aF0.1580730378627777
aF-0.04540563002228737
aF-0.625
aF-0.625
aF-0.625
aF-0.6232792139053345
aF-0.625
aF-0.625
aF-0.625
aF-0.625
aF-0.625
aF-0.625
aF-0.625
aF-0.625
aF-0.625
aF-0.625
aF-0.625
aF-0.625
aF-0.625
aF-0.5350281000137329
aF-0.551027774810791
aF-0.3641565442085266
aF-0.3084361255168915
aF-0.17824657261371613
aF-0.14402492344379425
aF-0.058748889714479446
aF-0.02749668061733246
aF-0.04189399257302284
aF0.1931835561990738
aF0.368402361869812
aF0.625
aF0.625
aF0.625
aF0.625
aF0.43395930528640747
aF0.11272379755973816
aF0.04835350811481476
aF-0.12356198579072952
aF-0.2636077404022217
aF-0.24061618745326996
aF0.12412600219249725
aF-0.14767512679100037
aF0.024214711040258408
aF-0.1137823536992073
aF-0.1988309919834137
aF-0.27555903792381287
aF-0.10534054040908813
aF-0.3505583703517914
aF-0.5608536601066589
aF-0.5179131031036377
aF-0.25700870156288147
aF-0.625
aF-0.625
aF-0.625
aF-0.625
aF-0.625
aF-0.625
aF-0.625
aF-0.625
aF-0.5888325572013855
aF-0.472025990486145
aF-0.3858555853366852
aF-0.21405550837516785
aF-0.20814768970012665
aF-0.13980232179164886
aF-0.03880978748202324
aF-0.03762054070830345
aF0.25379130244255066
aF0.5217940211296082
aF0.625
aF0.625
aF0.625
aF0.625
aF0.34584540128707886
aF0.16629666090011597
aF-0.027048984542489052
aF-0.1865277886390686
aF-0.2116728127002716
aF-0.0020035612396895885
aF-0.22121380269527435
aF-0.024517381563782692
aF-0.10662917047739029
aF0.09629388898611069
aF0.14259397983551025
aF-0.05134202539920807
aF0.1668214052915573
aF-0.0657997727394104
aF-0.625
aF-0.625
aF-0.625
aF-0.625
aF-0.625
aF-0.625
aF-0.625
aF-0.625
aF-0.625
aF-0.625
aF-0.625
aF-0.625
aF-0.604548454284668
aF-0.5015646815299988
aF-0.44482120871543884
aF-0.2609167993068695
aF-0.20460399985313416
aF-0.09593451023101807
aF-0.00687772361561656
aF-0.09733156859874725
aF0.028136376291513443
aF0.012105783447623253
aF0.16149824857711792
aF0.2826693654060364
aF0.625
aF0.625
aF0.625
aF0.625
aF0.5950008034706116
aF0.625
aF0.23601645231246948
aF-0.14835309982299805
aF-0.3354944586753845
aF-0.24296310544013977
aF-0.346853107213974
aF0.04011252149939537
aF0.01139063574373722
aF-0.010574853047728539
aF-0.13553175330162048
aF-0.1932837963104248
aF-0.2208530604839325
aF-0.625
aF-0.625
aF-0.566512405872345
aa(lp37
F-0.625
aF-0.625
aF-0.625
aF-0.625
aF-0.625
aF-0.625
aF-0.625
aF-0.625
aF-0.625
aF-0.625
aF-0.625
aF-0.625
aF-0.4908449351787567
aF-0.625
aF-0.2895807921886444
aF0.038167305290699005
aF0.2620296776294708
aF0.625
aF0.625
aF0.625
aF0.625
aF0.625
aF0.012217351235449314
aF-0.09712804108858109
aF-0.10267342627048492
aF-0.1643107384443283
aF-0.1061180830001831
aF-0.13912233710289001
aF-0.10368306934833527
aF-0.04148988798260689
aF-0.10512140393257141
aF-0.17825084924697876
aF-0.18314072489738464
aF-0.2923983633518219
aF0.05544280633330345
aF-0.020236143842339516
aF0.573074221611023
aF-0.625
aF-0.625
aF-0.625
aF-0.625
aF-0.625
aF-0.625
aF-0.625
aF-0.625
aF-0.625
aF-0.625
aF-0.625
aF-0.625
aF-0.625
aF-0.625
aF-0.625
aF-0.625
aF-0.625
aF-0.625
aF-0.6171622276306152
aF-0.6120738983154297
aF-0.584723711013794
aF-0.36075955629348755
aF-0.4951862096786499
aF-0.3131944239139557
aF-0.33147192001342773
aF0.625
aF0.625
aF0.625
aF0.625
aF0.31675824522972107
aF0.625
aF0.586169958114624
aF0.5057811141014099
aF-0.048687003552913666
aF-0.02481200359761715
aF-0.1793290078639984
aF-0.21300731599330902
aF-0.13163134455680847
aF-0.13634949922561646
aF-0.08970818668603897
aF0.0767098069190979
aF-0.11175502836704254
aF-0.09324672073125839
aF-0.007558247074484825
aF-0.625
aF-0.625
aF-0.625
aF-0.625
aF-0.625
aF-0.37332069873809814
aF-0.625
aF-0.4177367091178894
aF-0.25552812218666077
aF0.07158026099205017
aF0.05301855131983757
aF0.625
aF0.625
aF0.625
aF0.625
aF0.625
aF0.5701339840888977
aF0.3001990020275116
aF-0.03159917891025543
aF0.10803987085819244
aF-0.15264804661273956
aF0.17060665786266327
aF-0.15009702742099762
aF0.0799238532781601
aF-0.1285611391067505
aF0.07210973650217056
aF-0.12442255020141602
aF0.13264088332653046
aF-0.08314423263072968
aF-0.04231368005275726
aF0.008275714702904224
aF-0.02939704619348049
aF0.27400797605514526
aF0.22049683332443237
aF-0.045140642672777176
aF-0.11878912150859833
aF-0.20661300420761108
aF0.21301347017288208
aF0.04835958778858185
aF-0.001977586420252919
aF0.04510457441210747
aF-0.05882856994867325
aF0.06387678533792496
aF-0.03224650025367737
aF0.02336263284087181
aF-0.03740294277667999
aF-0.037476710975170135
aF0.16415056586265564
aF-0.14702825248241425
aF0.02239256538450718
aF-0.09332086145877838
aF0.1451859474182129
aF0.03272916376590729
aF-0.0609196275472641
aF0.011054945178329945
aF-0.04673933610320091
aF0.33389779925346375
aF-0.11621031165122986
aF-0.13047179579734802
aF0.1492929607629776
aF-0.02927502617239952
aF0.1909221112728119
aF-0.14556220173835754
aF0.05944058299064636
aF-0.0813574567437172
aF-0.0016554383328184485
aF-0.12541326880455017
aF-0.021532252430915833
aF-0.050156060606241226
aF0.0038836896419525146
aF-0.06428244709968567
aF0.11625806987285614
aF-0.03384796157479286
aF-0.04815728962421417
aF0.09666387736797333
aF-0.03643808513879776
aF0.18178384006023407
aF-0.06587933748960495
aF0.01313447579741478
aF-0.060578688979148865
aF0.1429014950990677
aF-0.06350477784872055
aF-0.053731441497802734
aF-0.16144105792045593
aF-0.1516895443201065
aF0.19354398548603058
aF-0.04262921214103699
aF-0.055885009467601776
aF0.01647881232202053
aF-0.044520094990730286
aF0.18572048842906952
aF0.09554889053106308
aF-0.10952826589345932
aF-0.12658512592315674
aF-0.011013484559953213
aF-0.10866516828536987
aF-0.017692839726805687
aF-0.15106385946273804
aF0.12467978894710541
aF-0.030023327097296715
aF0.011788466013967991
aF-0.06456098705530167
aF-0.21703024208545685
aF0.007263165432959795
aF-0.046024389564991
aF0.21729296445846558
aF0.16886071860790253
aF0.1481086164712906
aF-0.08665068447589874
aF-0.08237303048372269
aF-0.17823287844657898
aF-0.054793406277894974
aF-0.039855629205703735
aF0.02574463188648224
aF-0.051631007343530655
aF-0.08001577109098434
aF0.19399330019950867
aF0.00678426306694746
aF-0.005669137462973595
aF-0.03224785625934601
aF-0.05387287214398384
aF0.23309481143951416
aF0.24299681186676025
aF-0.005037200171500444
aF-0.17231211066246033
aF-0.22376638650894165
aF-0.22755049169063568
aF-0.19301123917102814
aF-0.1221383586525917
aF-0.2241029441356659
aF-0.1519847810268402
aF-0.12366379052400589
aF-0.625
aF-0.054249610751867294
aF0.3722090423107147
aF0.625
aF0.133173406124115
aF0.07452809065580368
aF0.08290998637676239
aF-0.20838621258735657
aF-0.19879886507987976
aF0.0008619280415587127
aF-0.09526663273572922
aF0.05247458070516586
aF-0.13079994916915894
aF-0.024387391284108162
aF-0.07577699422836304
aF0.012254176661372185
aF-0.1267022043466568
aF0.11588890850543976
aF-0.02469387650489807
aF0.01261129043996334
aF-0.625
aF-0.625
aF-0.625
aF-0.625
aF-0.625
aF-0.625
aF-0.625
aF-0.625
aF-0.625
aF-0.625
aF-0.625
aF-0.625
aF-0.529900312423706
aF-0.625
aF-0.33875012397766113
aF-0.5409577488899231
aF-0.3891437351703644
aF-0.10708755254745483
aF0.1514318734407425
aF0.625
aF0.625
aF0.625
aF0.625
aF0.625
aF0.43274787068367004
aF0.44525766372680664
aF-0.130931556224823
aF0.11224770545959473
aF-0.07792851328849792
aF-0.13128148019313812
aF-0.07078664004802704
aF-0.08901503682136536
aF0.11630323529243469
aF-0.035018328577280045
aF-0.1452009379863739
aF-0.04187510907649994
aF-0.13890686631202698
aF0.03667304664850235
aF-0.625
aF-0.625
aF-0.625
aF-0.625
aF-0.625
aF-0.625
aF-0.625
aF-0.625
aF-0.625
aF-0.625
aF-0.625
aF-0.625
aF-0.625
aF-0.625
aF-0.625
aF-0.625
aF-0.625
aF-0.625
aF-0.625
aF-0.625
aF-0.625
aF-0.625
aF-0.4812104105949402
aF-0.625
aF-0.2748275697231293
aF-0.33856111764907837
aF-0.24490416049957275
aF-0.030076734721660614
aF0.625
aF0.625
aF0.625
aF0.625
aF0.48993799090385437
aF0.6222721934318542
aF0.2778381407260895
aF0.14441633224487305
aF-0.0984547957777977
aF-0.13088668882846832
aF-0.03582579270005226
aF0.06989005208015442
aF-0.1932462751865387
aF-0.12622769176959991
aF-0.3520653247833252
aF-0.4087041914463043
aF-0.18965239822864532
aF-0.625
aF-0.6161438822746277
aF-0.625
aF-0.1076091080904007
aF-0.625
aF-0.625
aF-0.625
aF-0.625
aF-0.625
aF-0.625
aF-0.625
aF-0.625
aF-0.625
aF-0.625
aF-0.625
aF-0.625
aF-0.4174816310405731
aF-0.625
aF-0.24094393849372864
aF-0.21833442151546478
aF-0.14691825211048126
aF0.054739050567150116
aF0.625
aF0.625
aF0.625
aF0.625
aF0.625
aF0.625
aF-0.07649075984954834
aF0.13038434088230133
aF-0.047186873853206635
aF-0.13405969738960266
aF-0.09205465763807297
aF-0.11132048070430756
aF0.12699955701828003
aF-0.1241941824555397
aF-0.1805204302072525
aF-0.048673201352357864
aF-0.12998080253601074
aF-0.06995978951454163
aF-0.625
aF-0.625
aF-0.625
aF-0.625
aF-0.625
aF-0.625
aF-0.625
aF-0.625
aF-0.625
aF-0.625
aF-0.625
aF-0.625
aF-0.625
aF-0.625
aF-0.625
aF-0.625
aF-0.59271639585495
aF-0.6208258867263794
aF-0.42203488945961
aF-0.5462901592254639
aF-0.526896059513092
aF-0.42544040083885193
aF-0.37314799427986145
aF-0.3020690977573395
aF0.625
aF0.625
aF0.625
aF0.625
aF0.625
aF0.625
aF0.625
aF0.1554212123155594
aF-0.026859166100621223
aF-0.08858706057071686
aF-0.07499353587627411
aF-0.03560261428356171
aF-0.05356689915060997
aF-0.20109029114246368
aF-0.20611786842346191
aF-0.299140989780426
aF-0.33627933263778687
aF-0.625
aF-0.625
aF-0.625
aasS'metadata'
p38
(dp39
s.